; ModuleID = 'source-C-CXX/44/782.c'
source_filename = "source-C-CXX/44/782.c"
target datalayout = "e-m:e-p270:32:32-p271:32:32-p272:64:64-i64:64-f80:128-n8:16:32:64-S128"
target triple = "x86_64-pc-linux-gnu"

@.str = private unnamed_addr constant [6 x i8] c"%s %s\00", align 1
@.str.1 = private unnamed_addr constant [3 x i8] c"%d\00", align 1

; Function Attrs: nofree nounwind sspstrong uwtable
define dso_local i32 @main() local_unnamed_addr #0 {
  %1 = alloca [50 x i8], align 16
  %2 = alloca [50 x i8], align 16
  %3 = getelementptr inbounds [50 x i8], [50 x i8]* %1, i64 0, i64 0
  call void @llvm.lifetime.start.p0i8(i64 50, i8* nonnull %3) #3
  %4 = getelementptr inbounds [50 x i8], [50 x i8]* %2, i64 0, i64 0
  call void @llvm.lifetime.start.p0i8(i64 50, i8* nonnull %4) #3
  %5 = call i32 (i8*, ...) @__isoc99_scanf(i8* getelementptr inbounds ([6 x i8], [6 x i8]* @.str, i64 0, i64 0), i8* nonnull %4, i8* nonnull %3)
  %6 = load i8, i8* %4, align 16
  %7 = load i8, i8* %3, align 16, !tbaa !5
  %8 = icmp eq i8 %7, 0
  br i1 %8, label %37, label %9

9:                                                ; preds = %0
  %10 = icmp eq i8 %6, 0
  br i1 %10, label %37, label %11

11:                                               ; preds = %9, %26
  %12 = phi i64 [ %27, %26 ], [ 0, %9 ]
  br label %13

13:                                               ; preds = %11, %20
  %14 = phi i64 [ 0, %11 ], [ %22, %20 ]
  %15 = phi i64 [ %12, %11 ], [ %21, %20 ]
  %16 = phi i8 [ %6, %11 ], [ %24, %20 ]
  %17 = getelementptr inbounds [50 x i8], [50 x i8]* %1, i64 0, i64 %15
  %18 = load i8, i8* %17, align 1, !tbaa !5
  %19 = icmp eq i8 %18, %16
  br i1 %19, label %20, label %26

20:                                               ; preds = %13
  %21 = add nuw i64 %15, 1
  %22 = add nuw i64 %14, 1
  %23 = getelementptr inbounds [50 x i8], [50 x i8]* %2, i64 0, i64 %22
  %24 = load i8, i8* %23, align 1, !tbaa !5
  %25 = icmp eq i8 %24, 0
  br i1 %25, label %31, label %13, !llvm.loop !8

26:                                               ; preds = %13
  %27 = add nuw i64 %12, 1
  %28 = getelementptr inbounds [50 x i8], [50 x i8]* %1, i64 0, i64 %27
  %29 = load i8, i8* %28, align 1, !tbaa !5
  %30 = icmp eq i8 %29, 0
  br i1 %30, label %34, label %11, !llvm.loop !10

31:                                               ; preds = %20
  %32 = trunc i64 %22 to i32
  %33 = trunc i64 %21 to i32
  br label %37

34:                                               ; preds = %26
  %35 = trunc i64 %15 to i32
  %36 = trunc i64 %14 to i32
  br label %37

37:                                               ; preds = %9, %34, %31, %0
  %38 = phi i32 [ undef, %0 ], [ %32, %31 ], [ %36, %34 ], [ 0, %9 ]
  %39 = phi i32 [ undef, %0 ], [ %33, %31 ], [ %35, %34 ], [ 0, %9 ]
  %40 = sub nsw i32 %39, %38
  %41 = call i32 (i8*, ...) @printf(i8* nonnull dereferenceable(1) getelementptr inbounds ([3 x i8], [3 x i8]* @.str.1, i64 0, i64 0), i32 %40)
  call void @llvm.lifetime.end.p0i8(i64 50, i8* nonnull %4) #3
  call void @llvm.lifetime.end.p0i8(i64 50, i8* nonnull %3) #3
  ret i32 0
}

; Function Attrs: argmemonly mustprogress nofree nosync nounwind willreturn
declare void @llvm.lifetime.start.p0i8(i64 immarg, i8* nocapture) #1

; Function Attrs: nofree nounwind
declare noundef i32 @__isoc99_scanf(i8* nocapture noundef readonly, ...) local_unnamed_addr #2

; Function Attrs: nofree nounwind
declare noundef i32 @printf(i8* nocapture noundef readonly, ...) local_unnamed_addr #2

; Function Attrs: argmemonly mustprogress nofree nosync nounwind willreturn
declare void @llvm.lifetime.end.p0i8(i64 immarg, i8* nocapture) #1


!llvm.module.flags = !{!0, !1, !2, !3}
!llvm.ident = !{!4}

!0 = !{i32 1, !"wchar_size", i32 4}
!1 = !{i32 7, !"PIC Level", i32 2}
!2 = !{i32 7, !"PIE Level", i32 2}
!3 = !{i32 7, !"uwtable", i32 1}
!4 = !{!"clang version 13.0.0"}
!5 = !{!6, !6, i64 0}
!6 = !{!"omnipotent char", !7, i64 0}
!7 = !{!"Simple C/C++ TBAA"}
!8 = distinct !{!8, !9}
!9 = !{!"llvm.loop.mustprogress"}
!10 = distinct !{!10, !9}
